target datalayout = "e-m:e-p270:32:32-p271:32:32-p272:64:64-i64:64-i128:128-f80:128-n8:16:32:64-S128"
target triple = "x86_64-pc-linux-gnu"

%struct.repository = type { ptr, ptr, ptr, ptr, ptr, %struct.strmap, %struct.strmap, %struct.repo_path_cache, ptr, ptr, ptr, ptr, %struct.repo_settings, ptr, ptr, ptr, ptr, ptr, ptr, i32, i32, i32, ptr, ptr, i32, i32, i8 }
%struct.strmap = type { %struct.hashmap, ptr, i8 }
%struct.hashmap = type { ptr, ptr, ptr, i32, i32, i32, i32, i8 }
%struct.repo_path_cache = type { ptr, ptr, ptr, ptr, ptr, ptr, ptr }
%struct.repo_settings = type { i32, i32, i32, i32, i32, i32, i32, i32, i32, i32, i32, i32, ptr, i32, i32, i32, i32, i32, i32, i32, i64, i64, i64 }
%struct.strbuf = type { i64, i64, ptr }
%struct.raw_object_store = type { ptr, ptr, ptr, i32, ptr, ptr, i8, %union.pthread_mutex_t, ptr, i8, ptr, ptr, %struct.list_head, %struct.anon, %struct.hashmap, i64, i8 }
%union.pthread_mutex_t = type { %struct.__pthread_mutex_s }
%struct.__pthread_mutex_s = type { i32, i32, i32, i32, i32, i16, i16, %struct.__pthread_internal_list }
%struct.__pthread_internal_list = type { ptr, ptr }
%struct.list_head = type { ptr, ptr }
%struct.anon = type { ptr, i32 }
%struct.object_directory = type { ptr, [8 x i32], ptr, ptr, i32, i32, ptr }
%struct.set_gitdir_args = type { ptr, ptr, ptr, ptr, ptr, i32 }

@.str.2 = private unnamed_addr constant [8 x i8] c"objects\00", align 1
@.str.3 = private unnamed_addr constant [12 x i8] c"info/grafts\00", align 1
@.str.4 = private unnamed_addr constant [6 x i8] c"index\00", align 1
@__const.repo_set_commondir.sb = private unnamed_addr constant %struct.strbuf { i64 0, i64 0, ptr @strbuf_slopbuf }, align 8
@.str.14 = private unnamed_addr constant [6 x i8] c"%s/%s\00", align 1

; Function Attrs: inlinehint nounwind uwtable
define internal ptr @xstrdup_or_null(ptr noundef %0) #2 {
  %2 = alloca ptr, align 8
  store ptr %0, ptr %2, align 8, !tbaa !34
  %3 = load ptr, ptr %2, align 8, !tbaa !34
  %4 = icmp ne ptr %3, null
  br i1 %4, label %5, label %8

5:                                                ; preds = %1
  %6 = load ptr, ptr %2, align 8, !tbaa !34
  %7 = call ptr @xstrdup(ptr noundef %6)
  br label %9

8:                                                ; preds = %1
  br label %9

9:                                                ; preds = %8, %5
  %10 = phi ptr [ %7, %5 ], [ null, %8 ]
  ret ptr %10
}

; Function Attrs: nounwind uwtable
define internal void @expand_base_dir(ptr noundef %0, ptr noundef %1, ptr noundef %2, ptr noundef %3) #0 {
  %5 = alloca ptr, align 8
  %6 = alloca ptr, align 8
  %7 = alloca ptr, align 8
  %8 = alloca ptr, align 8
  store ptr %0, ptr %5, align 8, !tbaa !70
  store ptr %1, ptr %6, align 8, !tbaa !34
  store ptr %2, ptr %7, align 8, !tbaa !34
  store ptr %3, ptr %8, align 8, !tbaa !34
  %9 = load ptr, ptr %5, align 8, !tbaa !70
  %10 = load ptr, ptr %9, align 8, !tbaa !34
  call void @free(ptr noundef %10) #9
  %11 = load ptr, ptr %6, align 8, !tbaa !34
  %12 = icmp ne ptr %11, null
  br i1 %12, label %13, label %17

13:                                               ; preds = %4
  %14 = load ptr, ptr %6, align 8, !tbaa !34
  %15 = call ptr @xstrdup(ptr noundef %14)
  %16 = load ptr, ptr %5, align 8, !tbaa !70
  store ptr %15, ptr %16, align 8, !tbaa !34
  br label %22

17:                                               ; preds = %4
  %18 = load ptr, ptr %7, align 8, !tbaa !34
  %19 = load ptr, ptr %8, align 8, !tbaa !34
  %20 = call ptr (ptr, ...) @xstrfmt(ptr noundef @.str.14, ptr noundef %18, ptr noundef %19)
  %21 = load ptr, ptr %5, align 8, !tbaa !70
  store ptr %20, ptr %21, align 8, !tbaa !34
  br label %22

22:                                               ; preds = %17, %13
  ret void
}

; Function Attrs: nounwind uwtable
define internal void @repo_set_commondir(ptr noundef %0, ptr noundef %1) #0 {
  %3 = alloca ptr, align 8
  %4 = alloca ptr, align 8
  %5 = alloca %struct.strbuf, align 8
  %6 = alloca i32, align 4
  store ptr %0, ptr %3, align 8, !tbaa !4
  store ptr %1, ptr %4, align 8, !tbaa !34
  call void @llvm.lifetime.start.p0(i64 24, ptr %5) #9
  call void @llvm.memcpy.p0.p0.i64(ptr align 8 %5, ptr align 8 @__const.repo_set_commondir.sb, i64 24, i1 false)
  %7 = load ptr, ptr %3, align 8, !tbaa !4
  %8 = getelementptr inbounds nuw %struct.repository, ptr %7, i32 0, i32 1
  %9 = load ptr, ptr %8, align 8, !tbaa !37
  call void @free(ptr noundef %9) #9
  %10 = load ptr, ptr %4, align 8, !tbaa !34
  %11 = icmp ne ptr %10, null
  br i1 %11, label %12, label %22

12:                                               ; preds = %2
  %13 = load ptr, ptr %3, align 8, !tbaa !4
  %14 = getelementptr inbounds nuw %struct.repository, ptr %13, i32 0, i32 26
  %15 = load i8, ptr %14, align 8
  %16 = and i8 %15, -2
  %17 = or i8 %16, 1
  store i8 %17, ptr %14, align 8
  %18 = load ptr, ptr %4, align 8, !tbaa !34
  %19 = call ptr @xstrdup(ptr noundef %18)
  %20 = load ptr, ptr %3, align 8, !tbaa !4
  %21 = getelementptr inbounds nuw %struct.repository, ptr %20, i32 0, i32 1
  store ptr %19, ptr %21, align 8, !tbaa !37
  store i32 1, ptr %6, align 4
  br label %37

22:                                               ; preds = %2
  %23 = load ptr, ptr %3, align 8, !tbaa !4
  %24 = getelementptr inbounds nuw %struct.repository, ptr %23, i32 0, i32 0
  %25 = load ptr, ptr %24, align 8, !tbaa !36
  %26 = call i32 @get_common_dir_noenv(ptr noundef %5, ptr noundef %25)
  %27 = load ptr, ptr %3, align 8, !tbaa !4
  %28 = getelementptr inbounds nuw %struct.repository, ptr %27, i32 0, i32 26
  %29 = trunc i32 %26 to i8
  %30 = load i8, ptr %28, align 8
  %31 = and i8 %29, 1
  %32 = and i8 %30, -2
  %33 = or i8 %32, %31
  store i8 %33, ptr %28, align 8
  %34 = call ptr @strbuf_detach(ptr noundef %5, ptr noundef null)
  %35 = load ptr, ptr %3, align 8, !tbaa !4
  %36 = getelementptr inbounds nuw %struct.repository, ptr %35, i32 0, i32 1
  store ptr %34, ptr %36, align 8, !tbaa !37
  store i32 0, ptr %6, align 4
  br label %37

37:                                               ; preds = %22, %12
  call void @llvm.lifetime.end.p0(i64 24, ptr %5) #9
  %38 = load i32, ptr %6, align 4
  switch i32 %38, label %40 [
    i32 0, label %39
    i32 1, label %39
  ]

39:                                               ; preds = %37, %37
  ret void

40:                                               ; preds = %37
  unreachable
}

; Function Attrs: nounwind uwtable
define dso_local void @repo_set_gitdir(ptr noundef %0, ptr noundef %1, ptr noundef %2) #0 {
  %4 = alloca ptr, align 8
  %5 = alloca ptr, align 8
  %6 = alloca ptr, align 8
  %7 = alloca ptr, align 8
  %8 = alloca ptr, align 8
  store ptr %0, ptr %4, align 8, !tbaa !4
  store ptr %1, ptr %5, align 8, !tbaa !34
  store ptr %2, ptr %6, align 8, !tbaa !58
  call void @llvm.lifetime.start.p0(i64 8, ptr %7) #9
  %9 = load ptr, ptr %5, align 8, !tbaa !34
  %10 = call ptr @read_gitfile_gently(ptr noundef %9, ptr noundef null)
  store ptr %10, ptr %7, align 8, !tbaa !34
  call void @llvm.lifetime.start.p0(i64 8, ptr %8) #9
  %11 = load ptr, ptr %4, align 8, !tbaa !4
  %12 = getelementptr inbounds nuw %struct.repository, ptr %11, i32 0, i32 0
  %13 = load ptr, ptr %12, align 8, !tbaa !36
  store ptr %13, ptr %8, align 8, !tbaa !34
  %14 = load ptr, ptr %7, align 8, !tbaa !34
  %15 = icmp ne ptr %14, null
  br i1 %15, label %16, label %18

16:                                               ; preds = %3
  %17 = load ptr, ptr %7, align 8, !tbaa !34
  br label %20

18:                                               ; preds = %3
  %19 = load ptr, ptr %5, align 8, !tbaa !34
  br label %20

20:                                               ; preds = %18, %16
  %21 = phi ptr [ %17, %16 ], [ %19, %18 ]
  %22 = call ptr @xstrdup(ptr noundef %21)
  %23 = load ptr, ptr %4, align 8, !tbaa !4
  %24 = getelementptr inbounds nuw %struct.repository, ptr %23, i32 0, i32 0
  store ptr %22, ptr %24, align 8, !tbaa !36
  %25 = load ptr, ptr %8, align 8, !tbaa !34
  call void @free(ptr noundef %25) #9
  %26 = load ptr, ptr %4, align 8, !tbaa !4
  %27 = load ptr, ptr %6, align 8, !tbaa !58
  %28 = getelementptr inbounds nuw %struct.set_gitdir_args, ptr %27, i32 0, i32 0
  %29 = load ptr, ptr %28, align 8, !tbaa !60
  call void @repo_set_commondir(ptr noundef %26, ptr noundef %29)
  %30 = load ptr, ptr %4, align 8, !tbaa !4
  %31 = getelementptr inbounds nuw %struct.repository, ptr %30, i32 0, i32 2
  %32 = load ptr, ptr %31, align 8, !tbaa !9
  %33 = getelementptr inbounds nuw %struct.raw_object_store, ptr %32, i32 0, i32 0
  %34 = load ptr, ptr %33, align 8, !tbaa !38
  %35 = icmp ne ptr %34, null
  br i1 %35, label %52, label %36

36:                                               ; preds = %20
  %37 = call ptr @xcalloc(i64 noundef 1, i64 noundef 72)
  %38 = load ptr, ptr %4, align 8, !tbaa !4
  %39 = getelementptr inbounds nuw %struct.repository, ptr %38, i32 0, i32 2
  %40 = load ptr, ptr %39, align 8, !tbaa !9
  %41 = getelementptr inbounds nuw %struct.raw_object_store, ptr %40, i32 0, i32 0
  store ptr %37, ptr %41, align 8, !tbaa !38
  %42 = load ptr, ptr %4, align 8, !tbaa !4
  %43 = getelementptr inbounds nuw %struct.repository, ptr %42, i32 0, i32 2
  %44 = load ptr, ptr %43, align 8, !tbaa !9
  %45 = getelementptr inbounds nuw %struct.raw_object_store, ptr %44, i32 0, i32 0
  %46 = load ptr, ptr %45, align 8, !tbaa !38
  %47 = getelementptr inbounds nuw %struct.object_directory, ptr %46, i32 0, i32 0
  %48 = load ptr, ptr %4, align 8, !tbaa !4
  %49 = getelementptr inbounds nuw %struct.repository, ptr %48, i32 0, i32 2
  %50 = load ptr, ptr %49, align 8, !tbaa !9
  %51 = getelementptr inbounds nuw %struct.raw_object_store, ptr %50, i32 0, i32 1
  store ptr %47, ptr %51, align 8, !tbaa !62
  br label %52

52:                                               ; preds = %36, %20
  %53 = load ptr, ptr %4, align 8, !tbaa !4
  %54 = getelementptr inbounds nuw %struct.repository, ptr %53, i32 0, i32 2
  %55 = load ptr, ptr %54, align 8, !tbaa !9
  %56 = getelementptr inbounds nuw %struct.raw_object_store, ptr %55, i32 0, i32 0
  %57 = load ptr, ptr %56, align 8, !tbaa !38
  %58 = getelementptr inbounds nuw %struct.object_directory, ptr %57, i32 0, i32 6
  %59 = load ptr, ptr %6, align 8, !tbaa !58
  %60 = getelementptr inbounds nuw %struct.set_gitdir_args, ptr %59, i32 0, i32 1
  %61 = load ptr, ptr %60, align 8, !tbaa !63
  %62 = load ptr, ptr %4, align 8, !tbaa !4
  %63 = getelementptr inbounds nuw %struct.repository, ptr %62, i32 0, i32 1
  %64 = load ptr, ptr %63, align 8, !tbaa !37
  call void @expand_base_dir(ptr noundef %58, ptr noundef %61, ptr noundef %64, ptr noundef @.str.2)
  %65 = load ptr, ptr %6, align 8, !tbaa !58
  %66 = getelementptr inbounds nuw %struct.set_gitdir_args, ptr %65, i32 0, i32 5
  %67 = load i32, ptr %66, align 8, !tbaa !64
  %68 = load ptr, ptr %4, align 8, !tbaa !4
  %69 = getelementptr inbounds nuw %struct.repository, ptr %68, i32 0, i32 2
  %70 = load ptr, ptr %69, align 8, !tbaa !9
  %71 = getelementptr inbounds nuw %struct.raw_object_store, ptr %70, i32 0, i32 0
  %72 = load ptr, ptr %71, align 8, !tbaa !38
  %73 = getelementptr inbounds nuw %struct.object_directory, ptr %72, i32 0, i32 4
  store i32 %67, ptr %73, align 8, !tbaa !65
  %74 = load ptr, ptr %4, align 8, !tbaa !4
  %75 = getelementptr inbounds nuw %struct.repository, ptr %74, i32 0, i32 2
  %76 = load ptr, ptr %75, align 8, !tbaa !9
  %77 = getelementptr inbounds nuw %struct.raw_object_store, ptr %76, i32 0, i32 4
  %78 = load ptr, ptr %77, align 8, !tbaa !66
  call void @free(ptr noundef %78) #9
  %79 = load ptr, ptr %6, align 8, !tbaa !58
  %80 = getelementptr inbounds nuw %struct.set_gitdir_args, ptr %79, i32 0, i32 4
  %81 = load ptr, ptr %80, align 8, !tbaa !67
  %82 = call ptr @xstrdup_or_null(ptr noundef %81)
  %83 = load ptr, ptr %4, align 8, !tbaa !4
  %84 = getelementptr inbounds nuw %struct.repository, ptr %83, i32 0, i32 2
  %85 = load ptr, ptr %84, align 8, !tbaa !9
  %86 = getelementptr inbounds nuw %struct.raw_object_store, ptr %85, i32 0, i32 4
  store ptr %82, ptr %86, align 8, !tbaa !66
  %87 = load ptr, ptr %4, align 8, !tbaa !4
  %88 = getelementptr inbounds nuw %struct.repository, ptr %87, i32 0, i32 8
  %89 = load ptr, ptr %6, align 8, !tbaa !58
  %90 = getelementptr inbounds nuw %struct.set_gitdir_args, ptr %89, i32 0, i32 2
  %91 = load ptr, ptr %90, align 8, !tbaa !68
  %92 = load ptr, ptr %4, align 8, !tbaa !4
  %93 = getelementptr inbounds nuw %struct.repository, ptr %92, i32 0, i32 1
  %94 = load ptr, ptr %93, align 8, !tbaa !37
  call void @expand_base_dir(ptr noundef %88, ptr noundef %91, ptr noundef %94, ptr noundef @.str.3)
  %95 = load ptr, ptr %4, align 8, !tbaa !4
  %96 = getelementptr inbounds nuw %struct.repository, ptr %95, i32 0, i32 9
  %97 = load ptr, ptr %6, align 8, !tbaa !58
  %98 = getelementptr inbounds nuw %struct.set_gitdir_args, ptr %97, i32 0, i32 3
  %99 = load ptr, ptr %98, align 8, !tbaa !69
  %100 = load ptr, ptr %4, align 8, !tbaa !4
  %101 = getelementptr inbounds nuw %struct.repository, ptr %100, i32 0, i32 0
  %102 = load ptr, ptr %101, align 8, !tbaa !36
  call void @expand_base_dir(ptr noundef %96, ptr noundef %99, ptr noundef %102, ptr noundef @.str.4)
  call void @llvm.lifetime.end.p0(i64 8, ptr %8) #9
  call void @llvm.lifetime.end.p0(i64 8, ptr %7) #9
  ret void
}