; Function Attrs: nounwind uwtable
define dso_local void @repo_set_gitdir(ptr noundef captures(none) %0, ptr noundef %1, ptr noundef readonly captures(none) %2) local_unnamed_addr #0 {
  %4 = alloca %struct.strbuf, align 8
  %5 = tail call ptr @read_gitfile_gently(ptr noundef %1, ptr noundef null) #10
  %6 = load ptr, ptr %0, align 8, !tbaa !34
  %.not = icmp eq ptr %5, null
  %7 = select i1 %.not, ptr %1, ptr %5
  %8 = tail call ptr @xstrdup(ptr noundef %7) #10
  store ptr %8, ptr %0, align 8, !tbaa !34
  tail call void @free(ptr noundef %6) #10
  %9 = load ptr, ptr %2, align 8, !tbaa !56
  call void @llvm.lifetime.start.p0(i64 24, ptr nonnull %4) #10
  call void @llvm.memcpy.p0.p0.i64(ptr noundef nonnull align 8 dereferenceable(24) %4, ptr noundef nonnull align 8 dereferenceable(24) @__const.read_and_verify_repository_format.sb, i64 24, i1 false)
  %10 = getelementptr inbounds nuw i8, ptr %0, i64 8
  %11 = load ptr, ptr %10, align 8, !tbaa !35
  tail call void @free(ptr noundef %11) #10
  %.not.i = icmp eq ptr %9, null
  br i1 %.not.i, label %17, label %12

12:                                               ; preds = %3
  %13 = getelementptr inbounds nuw i8, ptr %0, i64 456
  %14 = load i8, ptr %13, align 8
  %15 = or i8 %14, 1
  store i8 %15, ptr %13, align 8
  %16 = tail call ptr @xstrdup(ptr noundef nonnull %9) #10
  br label %repo_set_commondir.exit

17:                                               ; preds = %3
  %18 = load ptr, ptr %0, align 8, !tbaa !34
  %19 = call i32 @get_common_dir_noenv(ptr noundef nonnull %4, ptr noundef %18) #10
  %20 = getelementptr inbounds nuw i8, ptr %0, i64 456
  %21 = trunc i32 %19 to i8
  %22 = load i8, ptr %20, align 8
  %23 = and i8 %21, 1
  %24 = and i8 %22, -2
  %25 = or disjoint i8 %24, %23
  store i8 %25, ptr %20, align 8
  %26 = call ptr @strbuf_detach(ptr noundef nonnull %4, ptr noundef null) #10
  br label %repo_set_commondir.exit

repo_set_commondir.exit:                          ; preds = %12, %17
  %storemerge.i = phi ptr [ %26, %17 ], [ %16, %12 ]
  store ptr %storemerge.i, ptr %10, align 8, !tbaa !35
  call void @llvm.lifetime.end.p0(i64 24, ptr nonnull %4) #10
  %27 = getelementptr inbounds nuw i8, ptr %0, i64 16
  %28 = load ptr, ptr %27, align 8, !tbaa !4
  %29 = load ptr, ptr %28, align 8, !tbaa !36
  %.not27 = icmp eq ptr %29, null
  br i1 %.not27, label %30, label %34

30:                                               ; preds = %repo_set_commondir.exit
  %31 = call ptr @xcalloc(i64 noundef 1, i64 noundef 72) #10
  %32 = load ptr, ptr %27, align 8, !tbaa !4
  store ptr %31, ptr %32, align 8, !tbaa !36
  %33 = getelementptr inbounds nuw i8, ptr %32, i64 8
  store ptr %31, ptr %33, align 8, !tbaa !58
  %.pre = load ptr, ptr %10, align 8, !tbaa !35
  br label %34

34:                                               ; preds = %30, %repo_set_commondir.exit
  %35 = phi ptr [ %.pre, %30 ], [ %storemerge.i, %repo_set_commondir.exit ]
  %36 = phi ptr [ %31, %30 ], [ %29, %repo_set_commondir.exit ]
  %37 = getelementptr inbounds nuw i8, ptr %36, i64 64
  %38 = getelementptr inbounds nuw i8, ptr %2, i64 8
  %39 = load ptr, ptr %38, align 8, !tbaa !59
  %40 = load ptr, ptr %37, align 8, !tbaa !60
  call void @free(ptr noundef %40) #10
  %.not.i28 = icmp eq ptr %39, null
  br i1 %.not.i28, label %43, label %41

41:                                               ; preds = %34
  %42 = call ptr @xstrdup(ptr noundef nonnull %39) #10
  br label %expand_base_dir.exit

43:                                               ; preds = %34
  %44 = call ptr (ptr, ...) @xstrfmt(ptr noundef nonnull @.str.14, ptr noundef %35, ptr noundef nonnull @.str.2) #10
  br label %expand_base_dir.exit

expand_base_dir.exit:                             ; preds = %41, %43
  %storemerge.i29 = phi ptr [ %44, %43 ], [ %42, %41 ]
  store ptr %storemerge.i29, ptr %37, align 8, !tbaa !60
  %45 = getelementptr inbounds nuw i8, ptr %2, i64 40
  %46 = load i32, ptr %45, align 8, !tbaa !61
  %47 = load ptr, ptr %27, align 8, !tbaa !4
  %48 = load ptr, ptr %47, align 8, !tbaa !36
  %49 = getelementptr inbounds nuw i8, ptr %48, i64 56
  store i32 %46, ptr %49, align 8, !tbaa !62
  %50 = getelementptr inbounds nuw i8, ptr %47, i64 32
  %51 = load ptr, ptr %50, align 8, !tbaa !63
  call void @free(ptr noundef %51) #10
  %52 = getelementptr inbounds nuw i8, ptr %2, i64 32
  %53 = load ptr, ptr %52, align 8, !tbaa !64
  %.not.i30 = icmp eq ptr %53, null
  br i1 %.not.i30, label %xstrdup_or_null.exit, label %54

54:                                               ; preds = %expand_base_dir.exit
  %55 = call ptr @xstrdup(ptr noundef nonnull %53) #10
  br label %xstrdup_or_null.exit

xstrdup_or_null.exit:                             ; preds = %expand_base_dir.exit, %54
  %56 = phi ptr [ %55, %54 ], [ null, %expand_base_dir.exit ]
  %57 = load ptr, ptr %27, align 8, !tbaa !4
  %58 = getelementptr inbounds nuw i8, ptr %57, i64 32
  store ptr %56, ptr %58, align 8, !tbaa !63
  %59 = getelementptr inbounds nuw i8, ptr %0, i64 224
  %60 = getelementptr inbounds nuw i8, ptr %2, i64 16
  %61 = load ptr, ptr %60, align 8, !tbaa !65
  %62 = load ptr, ptr %10, align 8, !tbaa !35
  %63 = load ptr, ptr %59, align 8, !tbaa !60
  call void @free(ptr noundef %63) #10
  %.not.i31 = icmp eq ptr %61, null
  br i1 %.not.i31, label %66, label %64

64:                                               ; preds = %xstrdup_or_null.exit
  %65 = call ptr @xstrdup(ptr noundef nonnull %61) #10
  br label %expand_base_dir.exit33

66:                                               ; preds = %xstrdup_or_null.exit
  %67 = call ptr (ptr, ...) @xstrfmt(ptr noundef nonnull @.str.14, ptr noundef %62, ptr noundef nonnull @.str.3) #10
  br label %expand_base_dir.exit33

expand_base_dir.exit33:                           ; preds = %64, %66
  %storemerge.i32 = phi ptr [ %67, %66 ], [ %65, %64 ]
  store ptr %storemerge.i32, ptr %59, align 8, !tbaa !60
  %68 = getelementptr inbounds nuw i8, ptr %0, i64 232
  %69 = getelementptr inbounds nuw i8, ptr %2, i64 24
  %70 = load ptr, ptr %69, align 8, !tbaa !66
  %71 = load ptr, ptr %0, align 8, !tbaa !34
  %72 = load ptr, ptr %68, align 8, !tbaa !60
  call void @free(ptr noundef %72) #10
  %.not.i34 = icmp eq ptr %70, null
  br i1 %.not.i34, label %75, label %73

73:                                               ; preds = %expand_base_dir.exit33
  %74 = call ptr @xstrdup(ptr noundef nonnull %70) #10
  br label %expand_base_dir.exit36

75:                                               ; preds = %expand_base_dir.exit33
  %76 = call ptr (ptr, ...) @xstrfmt(ptr noundef nonnull @.str.14, ptr noundef %71, ptr noundef nonnull @.str.4) #10
  br label %expand_base_dir.exit36

expand_base_dir.exit36:                           ; preds = %73, %75
  %storemerge.i35 = phi ptr [ %76, %75 ], [ %74, %73 ]
  store ptr %storemerge.i35, ptr %68, align 8, !tbaa !60
  ret void
}